target datalayout = "e-m:e-p270:32:32-p271:32:32-p272:64:64-i64:64-i128:128-f80:128-n8:16:32:64-S128"
target triple = "x86_64-pc-linux-gnu"

%struct._object = type { %union.anon, ptr }
%union.anon = type { i64 }
%struct._typeobject = type { %struct.PyVarObject, ptr, i64, i64, ptr, i64, ptr, ptr, ptr, ptr, ptr, ptr, ptr, ptr, ptr, ptr, ptr, ptr, ptr, i64, ptr, ptr, ptr, ptr, i64, ptr, ptr, ptr, ptr, ptr, ptr, ptr, ptr, ptr, i64, ptr, ptr, ptr, ptr, ptr, ptr, ptr, ptr, ptr, ptr, ptr, i32, ptr, ptr, i8, i16 }
%struct.PyVarObject = type { %struct._object, i64 }
%struct.PyDateTime_CAPI = type { ptr, ptr, ptr, ptr, ptr, ptr, ptr, ptr, ptr, ptr, ptr, ptr, ptr, ptr, ptr }

@_Py_NoneStruct = external global %struct._object, align 8
@PyDateTimeAPI = internal global ptr null, align 8
@test_run_counter = internal global i32 0, align 4
@PyExc_AssertionError = external global ptr, align 8
@.str.40 = private unnamed_addr constant [36 x i8] c"PyDateTime_CAPI somehow initialized\00", align 1
@.str.41 = private unnamed_addr constant [23 x i8] c"datetime.datetime_CAPI\00", align 1
@.str.42 = private unnamed_addr constant [65 x i8] c"!PyType_HasFeature(PyDateTimeAPI->DateType, Py_TPFLAGS_HEAPTYPE)\00", align 1
@.str.43 = private unnamed_addr constant [40 x i8] c"../cpython/Modules/_testcapi/datetime.c\00", align 1
@__PRETTY_FUNCTION__.test_datetime_capi = private unnamed_addr constant [53 x i8] c"PyObject *test_datetime_capi(PyObject *, PyObject *)\00", align 1
@.str.44 = private unnamed_addr constant [65 x i8] c"!PyType_HasFeature(PyDateTimeAPI->TimeType, Py_TPFLAGS_HEAPTYPE)\00", align 1
@.str.45 = private unnamed_addr constant [69 x i8] c"!PyType_HasFeature(PyDateTimeAPI->DateTimeType, Py_TPFLAGS_HEAPTYPE)\00", align 1
@.str.46 = private unnamed_addr constant [66 x i8] c"!PyType_HasFeature(PyDateTimeAPI->DeltaType, Py_TPFLAGS_HEAPTYPE)\00", align 1
@.str.47 = private unnamed_addr constant [67 x i8] c"!PyType_HasFeature(PyDateTimeAPI->TZInfoType, Py_TPFLAGS_HEAPTYPE)\00", align 1

; Function Attrs: inlinehint nounwind uwtable
define internal i32 @PyType_HasFeature(ptr noundef %0, i64 noundef %1) #3 {
  %3 = alloca ptr, align 8
  %4 = alloca i64, align 8
  %5 = alloca i64, align 8
  store ptr %0, ptr %3, align 8, !tbaa !41
  store i64 %1, ptr %4, align 8, !tbaa !43
  call void @llvm.lifetime.start.p0(i64 8, ptr %5) #6
  %6 = load ptr, ptr %3, align 8, !tbaa !41
  %7 = getelementptr inbounds nuw %struct._typeobject, ptr %6, i32 0, i32 19
  %8 = load i64, ptr %7, align 8, !tbaa !44
  store i64 %8, ptr %5, align 8, !tbaa !43
  %9 = load i64, ptr %5, align 8, !tbaa !43
  %10 = load i64, ptr %4, align 8, !tbaa !43
  %11 = and i64 %9, %10
  %12 = icmp ne i64 %11, 0
  %13 = zext i1 %12 to i32
  call void @llvm.lifetime.end.p0(i64 8, ptr %5) #6
  ret i32 %13
}

; Function Attrs: nounwind uwtable
define internal ptr @test_datetime_capi(ptr noundef %0, ptr noundef %1) #0 {
  %3 = alloca ptr, align 8
  %4 = alloca ptr, align 8
  %5 = alloca ptr, align 8
  store ptr %0, ptr %4, align 8, !tbaa !3
  store ptr %1, ptr %5, align 8, !tbaa !3
  %6 = load ptr, ptr @PyDateTimeAPI, align 8, !tbaa !24
  %7 = icmp ne ptr %6, null
  br i1 %7, label %8, label %14

8:                                                ; preds = %2
  %9 = load i32, ptr @test_run_counter, align 4, !tbaa !9
  %10 = icmp ne i32 %9, 0
  br i1 %10, label %11, label %12

11:                                               ; preds = %8
  store ptr @_Py_NoneStruct, ptr %3, align 8
  br label %67

12:                                               ; preds = %8
  %13 = load ptr, ptr @PyExc_AssertionError, align 8, !tbaa !3
  call void @PyErr_SetString(ptr noundef %13, ptr noundef @.str.40)
  store ptr null, ptr %3, align 8
  br label %67

14:                                               ; preds = %2
  %15 = load i32, ptr @test_run_counter, align 4, !tbaa !9
  %16 = add i32 %15, 1
  store i32 %16, ptr @test_run_counter, align 4, !tbaa !9
  %17 = call ptr @PyCapsule_Import(ptr noundef @.str.41, i32 noundef 0)
  store ptr %17, ptr @PyDateTimeAPI, align 8, !tbaa !24
  %18 = load ptr, ptr @PyDateTimeAPI, align 8, !tbaa !24
  %19 = icmp eq ptr %18, null
  br i1 %19, label %20, label %21

20:                                               ; preds = %14
  store ptr null, ptr %3, align 8
  br label %67

21:                                               ; preds = %14
  %22 = load ptr, ptr @PyDateTimeAPI, align 8, !tbaa !24
  %23 = getelementptr inbounds nuw %struct.PyDateTime_CAPI, ptr %22, i32 0, i32 0
  %24 = load ptr, ptr %23, align 8, !tbaa !25
  %25 = call i32 @PyType_HasFeature(ptr noundef %24, i64 noundef 512)
  %26 = icmp ne i32 %25, 0
  br i1 %26, label %28, label %27

27:                                               ; preds = %21
  br label %30

28:                                               ; preds = %21
  call void @__assert_fail(ptr noundef @.str.42, ptr noundef @.str.43, i32 noundef 30, ptr noundef @__PRETTY_FUNCTION__.test_datetime_capi) #7
  unreachable

29:                                               ; No predecessors!
  br label %30

30:                                               ; preds = %29, %27
  %31 = load ptr, ptr @PyDateTimeAPI, align 8, !tbaa !24
  %32 = getelementptr inbounds nuw %struct.PyDateTime_CAPI, ptr %31, i32 0, i32 2
  %33 = load ptr, ptr %32, align 8, !tbaa !29
  %34 = call i32 @PyType_HasFeature(ptr noundef %33, i64 noundef 512)
  %35 = icmp ne i32 %34, 0
  br i1 %35, label %37, label %36

36:                                               ; preds = %30
  br label %39

37:                                               ; preds = %30
  call void @__assert_fail(ptr noundef @.str.44, ptr noundef @.str.43, i32 noundef 31, ptr noundef @__PRETTY_FUNCTION__.test_datetime_capi) #7
  unreachable

38:                                               ; No predecessors!
  br label %39

39:                                               ; preds = %38, %36
  %40 = load ptr, ptr @PyDateTimeAPI, align 8, !tbaa !24
  %41 = getelementptr inbounds nuw %struct.PyDateTime_CAPI, ptr %40, i32 0, i32 1
  %42 = load ptr, ptr %41, align 8, !tbaa !27
  %43 = call i32 @PyType_HasFeature(ptr noundef %42, i64 noundef 512)
  %44 = icmp ne i32 %43, 0
  br i1 %44, label %46, label %45

45:                                               ; preds = %39
  br label %48

46:                                               ; preds = %39
  call void @__assert_fail(ptr noundef @.str.45, ptr noundef @.str.43, i32 noundef 32, ptr noundef @__PRETTY_FUNCTION__.test_datetime_capi) #7
  unreachable

47:                                               ; No predecessors!
  br label %48

48:                                               ; preds = %47, %45
  %49 = load ptr, ptr @PyDateTimeAPI, align 8, !tbaa !24
  %50 = getelementptr inbounds nuw %struct.PyDateTime_CAPI, ptr %49, i32 0, i32 3
  %51 = load ptr, ptr %50, align 8, !tbaa !28
  %52 = call i32 @PyType_HasFeature(ptr noundef %51, i64 noundef 512)
  %53 = icmp ne i32 %52, 0
  br i1 %53, label %55, label %54

54:                                               ; preds = %48
  br label %57

55:                                               ; preds = %48
  call void @__assert_fail(ptr noundef @.str.46, ptr noundef @.str.43, i32 noundef 33, ptr noundef @__PRETTY_FUNCTION__.test_datetime_capi) #7
  unreachable

56:                                               ; No predecessors!
  br label %57

57:                                               ; preds = %56, %54
  %58 = load ptr, ptr @PyDateTimeAPI, align 8, !tbaa !24
  %59 = getelementptr inbounds nuw %struct.PyDateTime_CAPI, ptr %58, i32 0, i32 4
  %60 = load ptr, ptr %59, align 8, !tbaa !30
  %61 = call i32 @PyType_HasFeature(ptr noundef %60, i64 noundef 512)
  %62 = icmp ne i32 %61, 0
  br i1 %62, label %64, label %63

63:                                               ; preds = %57
  br label %66

64:                                               ; preds = %57
  call void @__assert_fail(ptr noundef @.str.47, ptr noundef @.str.43, i32 noundef 34, ptr noundef @__PRETTY_FUNCTION__.test_datetime_capi) #7
  unreachable

65:                                               ; No predecessors!
  br label %66

66:                                               ; preds = %65, %63
  store ptr @_Py_NoneStruct, ptr %3, align 8
  br label %67

67:                                               ; preds = %66, %20, %12, %11
  %68 = load ptr, ptr %3, align 8
  ret ptr %68
}