; Function Attrs: nounwind uwtable
define internal noundef ptr @test_datetime_capi(ptr readnone captures(none) %0, ptr readnone captures(none) %1) #0 {
  %3 = load ptr, ptr @PyDateTimeAPI, align 8, !tbaa !24
  %.not = icmp eq ptr %3, null
  %4 = load i32, ptr @test_run_counter, align 4, !tbaa !22
  br i1 %.not, label %8, label %5

5:                                                ; preds = %2
  %.not7 = icmp eq i32 %4, 0
  br i1 %.not7, label %6, label %41

6:                                                ; preds = %5
  %7 = load ptr, ptr @PyExc_AssertionError, align 8, !tbaa !23
  tail call void @PyErr_SetString(ptr noundef %7, ptr noundef nonnull @.str.40) #4
  br label %41

8:                                                ; preds = %2
  %9 = add i32 %4, 1
  store i32 %9, ptr @test_run_counter, align 4, !tbaa !22
  %10 = tail call ptr @PyCapsule_Import(ptr noundef nonnull @.str.41, i32 noundef 0) #4
  store ptr %10, ptr @PyDateTimeAPI, align 8, !tbaa !24
  %11 = icmp eq ptr %10, null
  br i1 %11, label %41, label %12

12:                                               ; preds = %8
  %13 = load ptr, ptr %10, align 8, !tbaa !25
  %14 = getelementptr i8, ptr %13, i64 168
  %.val = load i64, ptr %14, align 8, !tbaa !42
  %15 = and i64 %.val, 512
  %.not2 = icmp eq i64 %15, 0
  br i1 %.not2, label %17, label %16

16:                                               ; preds = %12
  tail call void @__assert_fail(ptr noundef nonnull @.str.42, ptr noundef nonnull @.str.43, i32 noundef 30, ptr noundef nonnull @__PRETTY_FUNCTION__.test_datetime_capi) #5
  unreachable

17:                                               ; preds = %12
  %18 = getelementptr inbounds nuw i8, ptr %10, i64 16
  %19 = load ptr, ptr %18, align 8, !tbaa !30
  %20 = getelementptr i8, ptr %19, i64 168
  %.val8 = load i64, ptr %20, align 8, !tbaa !42
  %21 = and i64 %.val8, 512
  %.not3 = icmp eq i64 %21, 0
  br i1 %.not3, label %23, label %22

22:                                               ; preds = %17
  tail call void @__assert_fail(ptr noundef nonnull @.str.44, ptr noundef nonnull @.str.43, i32 noundef 31, ptr noundef nonnull @__PRETTY_FUNCTION__.test_datetime_capi) #5
  unreachable

23:                                               ; preds = %17
  %24 = getelementptr inbounds nuw i8, ptr %10, i64 8
  %25 = load ptr, ptr %24, align 8, !tbaa !28
  %26 = getelementptr i8, ptr %25, i64 168
  %.val9 = load i64, ptr %26, align 8, !tbaa !42
  %27 = and i64 %.val9, 512
  %.not4 = icmp eq i64 %27, 0
  br i1 %.not4, label %29, label %28

28:                                               ; preds = %23
  tail call void @__assert_fail(ptr noundef nonnull @.str.45, ptr noundef nonnull @.str.43, i32 noundef 32, ptr noundef nonnull @__PRETTY_FUNCTION__.test_datetime_capi) #5
  unreachable

29:                                               ; preds = %23
  %30 = getelementptr inbounds nuw i8, ptr %10, i64 24
  %31 = load ptr, ptr %30, align 8, !tbaa !29
  %32 = getelementptr i8, ptr %31, i64 168
  %.val10 = load i64, ptr %32, align 8, !tbaa !42
  %33 = and i64 %.val10, 512
  %.not5 = icmp eq i64 %33, 0
  br i1 %.not5, label %35, label %34

34:                                               ; preds = %29
  tail call void @__assert_fail(ptr noundef nonnull @.str.46, ptr noundef nonnull @.str.43, i32 noundef 33, ptr noundef nonnull @__PRETTY_FUNCTION__.test_datetime_capi) #5
  unreachable

35:                                               ; preds = %29
  %36 = getelementptr inbounds nuw i8, ptr %10, i64 32
  %37 = load ptr, ptr %36, align 8, !tbaa !31
  %38 = getelementptr i8, ptr %37, i64 168
  %.val11 = load i64, ptr %38, align 8, !tbaa !42
  %39 = and i64 %.val11, 512
  %.not6 = icmp eq i64 %39, 0
  br i1 %.not6, label %41, label %40

40:                                               ; preds = %35
  tail call void @__assert_fail(ptr noundef nonnull @.str.47, ptr noundef nonnull @.str.43, i32 noundef 34, ptr noundef nonnull @__PRETTY_FUNCTION__.test_datetime_capi) #5
  unreachable

41:                                               ; preds = %35, %8, %5, %6
  %.0 = phi ptr [ null, %6 ], [ @_Py_NoneStruct, %5 ], [ null, %8 ], [ @_Py_NoneStruct, %35 ]
  ret ptr %.0
}